target datalayout = "e-m:e-p270:32:32-p271:32:32-p272:64:64-i64:64-i128:128-f80:128-n8:16:32:64-S128"
target triple = "x86_64-pc-linux-gnu"

%"struct.std::_Rb_tree_key_compare" = type { %"struct.std::less" }
%"struct.std::less" = type { i8 }
%"struct.std::_Rb_tree_header" = type { %"struct.std::_Rb_tree_node_base", i64 }
%"struct.std::_Rb_tree_node_base" = type { i32, ptr, ptr, ptr }
%"struct.casadi::KinsolMemory" = type { %"struct.casadi::RootfinderMemory", ptr, ptr, ptr, ptr }
%"struct.casadi::RootfinderMemory" = type { %"struct.casadi::OracleMemory", ptr, ptr, i8, i32 }
%"struct.casadi::OracleMemory" = type { %"struct.casadi::FunctionMemory", ptr, ptr, ptr, ptr, %"class.std::vector.69" }
%"struct.casadi::FunctionMemory" = type { %"struct.casadi::ProtoFunctionMemory" }
%"struct.casadi::ProtoFunctionMemory" = type { %"class.std::map.64", ptr }
%"class.std::map.64" = type { %"class.std::_Rb_tree.65" }
%"class.std::_Rb_tree.65" = type { %"struct.std::_Rb_tree<std::__cxx11::basic_string<char>, std::pair<const std::__cxx11::basic_string<char>, casadi::FStats>, std::_Select1st<std::pair<const std::__cxx11::basic_string<char>, casadi::FStats>>, std::less<std::__cxx11::basic_string<char>>>::_Rb_tree_impl" }
%"struct.std::_Rb_tree<std::__cxx11::basic_string<char>, std::pair<const std::__cxx11::basic_string<char>, casadi::FStats>, std::_Select1st<std::pair<const std::__cxx11::basic_string<char>, casadi::FStats>>, std::less<std::__cxx11::basic_string<char>>>::_Rb_tree_impl" = type { %"struct.std::_Rb_tree_key_compare", %"struct.std::_Rb_tree_header" }
%"class.std::vector.69" = type { %"struct.std::_Vector_base.70" }
%"struct.std::_Vector_base.70" = type { %"struct.std::_Vector_base<casadi::LocalOracleMemory *, std::allocator<casadi::LocalOracleMemory *>>::_Vector_impl" }
%"struct.std::_Vector_base<casadi::LocalOracleMemory *, std::allocator<casadi::LocalOracleMemory *>>::_Vector_impl" = type { %"struct.std::_Vector_base<casadi::LocalOracleMemory *, std::allocator<casadi::LocalOracleMemory *>>::_Vector_impl_data" }
%"struct.std::_Vector_base<casadi::LocalOracleMemory *, std::allocator<casadi::LocalOracleMemory *>>::_Vector_impl_data" = type { ptr, ptr, ptr }
%struct.KINMemRec = type { double, ptr, ptr, double, double, i32, i32, i64, i64, i64, i64, i32, i32, i32, i32, i32, i32, i32, i32, i32, double, double, double, double, double, double, double, double, double, i32, double, i64, i64, i64, i64, i64, i64, i64, ptr, ptr, ptr, ptr, ptr, ptr, ptr, ptr, ptr, ptr, ptr, ptr, ptr, ptr, ptr, ptr, ptr, ptr, i64, i32, i32, i64, i64, i64, i64, ptr, ptr, ptr, ptr, i32, ptr, double, double, double, double, double, i32, double, double, double, i32, ptr, ptr, ptr, ptr, ptr, ptr }

@_ZTISt9exception = external constant ptr
@.str.94 = private unnamed_addr constant [16 x i8] c"lsetup failed: \00", align 1

; Function Attrs: mustprogress uwtable
define noundef i32 @_ZN6casadi15KinsolInterface6lsetupEP9KINMemRec(ptr noundef %0) #4 align 2 personality ptr @__gxx_personality_v0 {
  %2 = alloca i32, align 4
  %3 = alloca ptr, align 8
  %4 = alloca ptr, align 8
  %5 = alloca ptr, align 8
  %6 = alloca i32, align 4
  %7 = alloca ptr, align 8
  %8 = alloca ptr, align 8
  %9 = alloca ptr, align 8
  %10 = alloca ptr, align 8
  %11 = alloca ptr, align 8
  %12 = alloca ptr, align 8
  %13 = alloca ptr, align 8
  %14 = alloca ptr, align 8
  store ptr %0, ptr %3, align 8
  %15 = load ptr, ptr %3, align 8
  %16 = getelementptr inbounds %struct.KINMemRec, ptr %15, i32 0, i32 68
  %17 = load ptr, ptr %16, align 8
  %18 = invoke noundef ptr @_ZN6casadi15KinsolInterface6to_memEPv(ptr noundef %17)
          to label %19 unwind label %50

19:                                               ; preds = %1
  store ptr %18, ptr %4, align 8
  %20 = load ptr, ptr %4, align 8
  %21 = getelementptr inbounds %"struct.casadi::KinsolMemory", ptr %20, i32 0, i32 1
  %22 = load ptr, ptr %21, align 8
  store ptr %22, ptr %7, align 8
  %23 = load ptr, ptr %3, align 8
  %24 = getelementptr inbounds %struct.KINMemRec, ptr %23, i32 0, i32 38
  %25 = load ptr, ptr %24, align 8
  store ptr %25, ptr %8, align 8
  %26 = load ptr, ptr %3, align 8
  %27 = getelementptr inbounds %struct.KINMemRec, ptr %26, i32 0, i32 42
  %28 = load ptr, ptr %27, align 8
  store ptr %28, ptr %9, align 8
  %29 = load ptr, ptr %3, align 8
  %30 = getelementptr inbounds %struct.KINMemRec, ptr %29, i32 0, i32 40
  %31 = load ptr, ptr %30, align 8
  store ptr %31, ptr %10, align 8
  %32 = load ptr, ptr %3, align 8
  %33 = getelementptr inbounds %struct.KINMemRec, ptr %32, i32 0, i32 43
  %34 = load ptr, ptr %33, align 8
  store ptr %34, ptr %11, align 8
  %35 = load ptr, ptr %3, align 8
  %36 = getelementptr inbounds %struct.KINMemRec, ptr %35, i32 0, i32 46
  %37 = load ptr, ptr %36, align 8
  store ptr %37, ptr %12, align 8
  %38 = load ptr, ptr %3, align 8
  %39 = getelementptr inbounds %struct.KINMemRec, ptr %38, i32 0, i32 47
  %40 = load ptr, ptr %39, align 8
  store ptr %40, ptr %13, align 8
  %41 = load ptr, ptr %7, align 8
  %42 = load ptr, ptr %4, align 8
  %43 = load ptr, ptr %8, align 8
  %44 = load ptr, ptr %9, align 8
  %45 = load ptr, ptr %10, align 8
  %46 = load ptr, ptr %11, align 8
  %47 = load ptr, ptr %12, align 8
  %48 = load ptr, ptr %13, align 8
  invoke void @_ZNK6casadi15KinsolInterface6psetupERNS_12KinsolMemoryEP17_generic_N_VectorS4_S4_S4_S4_S4_(ptr noundef nonnull align 8 dereferenceable(1696) %41, ptr noundef nonnull align 8 dereferenceable(168) %42, ptr noundef %43, ptr noundef %44, ptr noundef %45, ptr noundef %46, ptr noundef %47, ptr noundef %48)
          to label %49 unwind label %50

49:                                               ; preds = %19
  store i32 0, ptr %2, align 4
  br label %80

50:                                               ; preds = %19, %1
  %51 = landingpad { ptr, i32 }
          catch ptr @_ZTISt9exception
  %52 = extractvalue { ptr, i32 } %51, 0
  store ptr %52, ptr %5, align 8
  %53 = extractvalue { ptr, i32 } %51, 1
  store i32 %53, ptr %6, align 4
  br label %54

54:                                               ; preds = %50
  %55 = load i32, ptr %6, align 4
  %56 = call i32 @llvm.eh.typeid.for(ptr @_ZTISt9exception) #3
  %57 = icmp eq i32 %55, %56
  br i1 %57, label %58, label %82

58:                                               ; preds = %54
  %59 = load ptr, ptr %5, align 8
  %60 = call ptr @__cxa_begin_catch(ptr %59) #3
  store ptr %60, ptr %14, align 8
  %61 = invoke noundef nonnull align 8 dereferenceable(8) ptr @_ZN6casadi4uerrEv()
          to label %62 unwind label %74

62:                                               ; preds = %58
  %63 = invoke noundef nonnull align 8 dereferenceable(8) ptr @_ZStlsISt11char_traitsIcEERSt13basic_ostreamIcT_ES5_PKc(ptr noundef nonnull align 8 dereferenceable(8) %61, ptr noundef @.str.94)
          to label %64 unwind label %74

64:                                               ; preds = %62
  %65 = load ptr, ptr %14, align 8
  %66 = load ptr, ptr %65, align 8
  %67 = getelementptr inbounds ptr, ptr %66, i64 2
  %68 = load ptr, ptr %67, align 8
  %69 = call noundef ptr %68(ptr noundef nonnull align 8 dereferenceable(8) %65) #3
  %70 = invoke noundef nonnull align 8 dereferenceable(8) ptr @_ZStlsISt11char_traitsIcEERSt13basic_ostreamIcT_ES5_PKc(ptr noundef nonnull align 8 dereferenceable(8) %63, ptr noundef %69)
          to label %71 unwind label %74

71:                                               ; preds = %64
  %72 = invoke noundef nonnull align 8 dereferenceable(8) ptr @_ZNSolsEPFRSoS_E(ptr noundef nonnull align 8 dereferenceable(8) %70, ptr noundef @_ZSt4endlIcSt11char_traitsIcEERSt13basic_ostreamIT_T0_ES6_)
          to label %73 unwind label %74

73:                                               ; preds = %71
  store i32 -1, ptr %2, align 4
  call void @__cxa_end_catch()
  br label %80

74:                                               ; preds = %71, %64, %62, %58
  %75 = landingpad { ptr, i32 }
          cleanup
  %76 = extractvalue { ptr, i32 } %75, 0
  store ptr %76, ptr %5, align 8
  %77 = extractvalue { ptr, i32 } %75, 1
  store i32 %77, ptr %6, align 4
  invoke void @__cxa_end_catch()
          to label %78 unwind label %87

78:                                               ; preds = %74
  br label %82

79:                                               ; No predecessors!
  call void @llvm.trap()
  unreachable

80:                                               ; preds = %73, %49
  %81 = load i32, ptr %2, align 4
  ret i32 %81

82:                                               ; preds = %78, %54
  %83 = load ptr, ptr %5, align 8
  %84 = load i32, ptr %6, align 4
  %85 = insertvalue { ptr, i32 } poison, ptr %83, 0
  %86 = insertvalue { ptr, i32 } %85, i32 %84, 1
  resume { ptr, i32 } %86

87:                                               ; preds = %74
  %88 = landingpad { ptr, i32 }
          catch ptr null
  %89 = extractvalue { ptr, i32 } %88, 0
  call void @__clang_call_terminate(ptr %89) #17
  unreachable
}