; Function Attrs: mustprogress uwtable
define noundef i32 @_ZN6casadi15KinsolInterface6lsetupEP9KINMemRec(ptr nocapture noundef readonly %0) #3 align 2 personality ptr @__gxx_personality_v0 {
  %2 = getelementptr inbounds i8, ptr %0, i64 496
  %3 = load ptr, ptr %2, align 8
  %4 = invoke noundef ptr @_ZN6casadi15KinsolInterface6to_memEPv(ptr noundef %3)
          to label %5 unwind label %10

5:                                                ; preds = %1
  %6 = getelementptr inbounds i8, ptr %4, i64 136
  %7 = load ptr, ptr %6, align 8
  %8 = getelementptr inbounds i8, ptr %0, i64 264
  %9 = load ptr, ptr %8, align 8
  invoke void @_ZNK6casadi15KinsolInterface6psetupERNS_12KinsolMemoryEP17_generic_N_VectorS4_S4_S4_S4_S4_(ptr noundef nonnull align 8 dereferenceable(1696) %7, ptr noundef nonnull align 8 dereferenceable(168) %4, ptr noundef %9, ptr poison, ptr poison, ptr poison, ptr poison, ptr poison)
          to label %32 unwind label %10

10:                                               ; preds = %5, %1
  %11 = landingpad { ptr, i32 }
          catch ptr @_ZTISt9exception
  %12 = extractvalue { ptr, i32 } %11, 1
  %13 = tail call i32 @llvm.eh.typeid.for(ptr nonnull @_ZTISt9exception) #19
  %14 = icmp eq i32 %12, %13
  br i1 %14, label %15, label %33

15:                                               ; preds = %10
  %16 = extractvalue { ptr, i32 } %11, 0
  %17 = tail call ptr @__cxa_begin_catch(ptr %16) #19
  %18 = invoke noundef nonnull align 8 dereferenceable(8) ptr @_ZN6casadi4uerrEv()
          to label %19 unwind label %30

19:                                               ; preds = %15
  %20 = invoke noundef nonnull align 8 dereferenceable(8) ptr @_ZStlsISt11char_traitsIcEERSt13basic_ostreamIcT_ES5_PKc(ptr noundef nonnull align 8 dereferenceable(8) %18, ptr noundef nonnull @.str.94)
          to label %21 unwind label %30

21:                                               ; preds = %19
  %22 = load ptr, ptr %17, align 8
  %23 = getelementptr inbounds i8, ptr %22, i64 16
  %24 = load ptr, ptr %23, align 8
  %25 = tail call noundef ptr %24(ptr noundef nonnull align 8 dereferenceable(8) %17) #19
  %26 = invoke noundef nonnull align 8 dereferenceable(8) ptr @_ZStlsISt11char_traitsIcEERSt13basic_ostreamIcT_ES5_PKc(ptr noundef nonnull align 8 dereferenceable(8) %20, ptr noundef %25)
          to label %27 unwind label %30

27:                                               ; preds = %21
  %28 = invoke noundef nonnull align 8 dereferenceable(8) ptr @_ZNSolsEPFRSoS_E(ptr noundef nonnull align 8 dereferenceable(8) %26, ptr noundef nonnull @_ZSt4endlIcSt11char_traitsIcEERSt13basic_ostreamIT_T0_ES6_)
          to label %29 unwind label %30

29:                                               ; preds = %27
  tail call void @__cxa_end_catch()
  br label %32

30:                                               ; preds = %27, %21, %19, %15
  %31 = landingpad { ptr, i32 }
          cleanup
  invoke void @__cxa_end_catch()
          to label %33 unwind label %34

32:                                               ; preds = %5, %29
  %.0 = phi i32 [ -1, %29 ], [ 0, %5 ]
  ret i32 %.0

33:                                               ; preds = %30, %10
  %.merged = phi { ptr, i32 } [ %31, %30 ], [ %11, %10 ]
  resume { ptr, i32 } %.merged

34:                                               ; preds = %30
  %35 = landingpad { ptr, i32 }
          catch ptr null
  %36 = extractvalue { ptr, i32 } %35, 0
  tail call void @__clang_call_terminate(ptr %36) #22
  unreachable
}